     1 00000000                                 [FORMAT "WCOFF"]
     2 00000000                                 [INSTRSET "i486p"]
     3 00000000                                 [OPTIMIZE 1]
     4 00000000                                 [OPTION 1]
     5 00000000                                 [BITS 32]
     6 00000000                                 	EXTERN	_init_gdtidt
     7 00000000                                 	EXTERN	_init_pic
     8 00000000                                 	EXTERN	_init_pit
     9 00000000                                 	EXTERN	_io_sti
    10 00000000                                 	EXTERN	_memtest
    11 00000000                                 	EXTERN	_memman_init
    12 00000000                                 	EXTERN	_memman_free
    13 00000000                                 	EXTERN	_init_fifo32
    14 00000000                                 	EXTERN	_init_keyboard
    15 00000000                                 	EXTERN	_enable_mouse
    16 00000000                                 	EXTERN	_io_out8
    17 00000000                                 	EXTERN	_init_palette
    18 00000000                                 	EXTERN	_sheetctrl_init
    19 00000000                                 	EXTERN	_sheet_alloc
    20 00000000                                 	EXTERN	_memman_alloc_4k
    21 00000000                                 	EXTERN	_sheet_setbuf
    22 00000000                                 	EXTERN	_init_screen8
    23 00000000                                 	EXTERN	_init_mouse_cursor8
    24 00000000                                 	EXTERN	_timer_alloc
    25 00000000                                 	EXTERN	_timer_init
    26 00000000                                 	EXTERN	_timer_settimer
    27 00000000                                 	EXTERN	_make_window8
    28 00000000                                 	EXTERN	_make_textbox8
    29 00000000                                 	EXTERN	_task_init
    30 00000000                                 	EXTERN	_task_run
    31 00000000                                 	EXTERN	_sprintf
    32 00000000                                 	EXTERN	_task_alloc
    33 00000000                                 	EXTERN	_sheet_slide
    34 00000000                                 	EXTERN	_sheet_updown
    35 00000000                                 	EXTERN	_memman_total
    36 00000000                                 	EXTERN	_putStrOnSheet
    37 00000000                                 	EXTERN	_io_cli
    38 00000000                                 	EXTERN	_fifo32_status
    39 00000000                                 	EXTERN	_fifo32_get
    40 00000000                                 	EXTERN	_keytable
    41 00000000                                 	EXTERN	_putStrOnSheet_BG
    42 00000000                                 	EXTERN	_mouse_decode
    43 00000000                                 	EXTERN	_max
    44 00000000                                 	EXTERN	_min
    45 00000000                                 	EXTERN	_putBoxOnSheet
    46 00000000                                 	EXTERN	_task_sleep
    47 00000000                                 	EXTERN	_task_current
    48 00000000                                 [FILE "bootpack.c"]
    49                                          [SECTION .data]
    50 00000000                                 LC0:
    51 00000000 43 6F 75 6E 74 00               	DB	"Count",0x00
    52 00000006                                 LC1:
    53 00000006 4E 6F 74 65 50 61 64 00         	DB	"NotePad",0x00
    54 0000000E                                 LC2:
    55 0000000E 74 61 73 6B 5F 62 5F 25 64 00   	DB	"task_b_%d",0x00
    56 00000018                                 LC3:
    57 00000018 63 6F 6E 73 6F 6C 65 00         	DB	"console",0x00
    58 00000020                                 LC4:
    59 00000020 5B 6D 65 6D 65 72 79 3A 20 25   	DB	"[memery: %dMB; free: %dKB;]",0x00
       0000002A 64 4D 42 3B 20 66 72 65 65 3A 
       00000034 20 25 64 4B 42 3B 5D 00 
    60 0000003C                                 LC5:
    61 0000003C 25 30 31 30 64 00               	DB	"%010d",0x00
    62 00000042                                 LC7:
    63 00000042 31 30 20 53 45 43 00            	DB	"10 SEC",0x00
    64 00000049                                 LC8:
    65 00000049 25 30 32 58 00                  	DB	"%02X",0x00
    66 0000004E                                 LC9:
    67 0000004E 25 64 00                        	DB	"%d",0x00
    68 00000051                                 LC10:
    69 00000051 20 00                           	DB	" ",0x00
    70 00000053                                 LC11:
    71 00000053 5B 20 20 20 20 25 34 64 20 25   	DB	"[    %4d %4d]",0x00
       0000005D 34 64 5D 00 
    72 00000061                                 LC12:
    73 00000061 28 25 33 64 2C 20 25 33 64 29   	DB	"(%3d, %3d)",0x00
       0000006B 00 
    74 0000006C                                 LC6:
    75 0000006C 33 20 53 45 43 00               	DB	"3 SEC",0x00
    76                                          [SECTION .text]
    77 00000000                                 	GLOBAL	_HariMain
    78 00000000                                 _HariMain:
    79 00000000 55                              	PUSH	EBP
    80 00000001 89 E5                           	MOV	EBP,ESP
    81 00000003 57                              	PUSH	EDI
    82 00000004 56                              	PUSH	ESI
    83 00000005 53                              	PUSH	EBX
    84 00000006 8D 75 A4                        	LEA	ESI,DWORD [-92+EBP]
    85 00000009 81 EC 000003E0                  	SUB	ESP,992
    86 0000000F E8 [00000000]                   	CALL	_init_gdtidt
    87 00000014 E8 [00000000]                   	CALL	_init_pic
    88 00000019 E8 [00000000]                   	CALL	_init_pit
    89 0000001E E8 [00000000]                   	CALL	_io_sti
    90 00000023 68 BFFFFFFF                     	PUSH	-1073741825
    91 00000028 68 00400000                     	PUSH	4194304
    92 0000002D E8 [00000000]                   	CALL	_memtest
    93 00000032 68 003C0000                     	PUSH	3932160
    94 00000037 89 85 FFFFFC3C                  	MOV	DWORD [-964+EBP],EAX
    95 0000003D E8 [00000000]                   	CALL	_memman_init
    96 00000042 68 0009E000                     	PUSH	647168
    97 00000047 68 00001000                     	PUSH	4096
    98 0000004C 68 003C0000                     	PUSH	3932160
    99 00000051 E8 [00000000]                   	CALL	_memman_free
   100 00000056 8B 85 FFFFFC3C                  	MOV	EAX,DWORD [-964+EBP]
   101 0000005C 2D 00400000                     	SUB	EAX,4194304
   102 00000061 50                              	PUSH	EAX
   103 00000062 68 00400000                     	PUSH	4194304
   104 00000067 68 003C0000                     	PUSH	3932160
   105 0000006C E8 [00000000]                   	CALL	_memman_free
   106 00000071 8D 85 FFFFFDA4                  	LEA	EAX,DWORD [-604+EBP]
   107 00000077 83 C4 24                        	ADD	ESP,36
   108 0000007A 6A 00                           	PUSH	0
   109 0000007C 50                              	PUSH	EAX
   110 0000007D 68 00000080                     	PUSH	128
   111 00000082 56                              	PUSH	ESI
   112 00000083 E8 [00000000]                   	CALL	_init_fifo32
   113 00000088 68 00000100                     	PUSH	256
   114 0000008D 56                              	PUSH	ESI
   115 0000008E E8 [00000000]                   	CALL	_init_keyboard
   116 00000093 8D 85 FFFFFD94                  	LEA	EAX,DWORD [-620+EBP]
   117 00000099 68 00000200                     	PUSH	512
   118 0000009E 56                              	PUSH	ESI
   119 0000009F 50                              	PUSH	EAX
   120 000000A0 E8 [00000000]                   	CALL	_enable_mouse
   121 000000A5 83 C4 24                        	ADD	ESP,36
   122 000000A8 68 000000F8                     	PUSH	248
   123 000000AD 6A 21                           	PUSH	33
   124 000000AF E8 [00000000]                   	CALL	_io_out8
   125 000000B4 68 000000EF                     	PUSH	239
   126 000000B9 68 000000A1                     	PUSH	161
   127 000000BE E8 [00000000]                   	CALL	_io_out8
   128 000000C3 E8 [00000000]                   	CALL	_init_palette
   129 000000C8 0F BF 05 00000FF6               	MOVSX	EAX,WORD [4086]
   130 000000CF 50                              	PUSH	EAX
   131 000000D0 0F BF 05 00000FF4               	MOVSX	EAX,WORD [4084]
   132 000000D7 50                              	PUSH	EAX
   133 000000D8 FF 35 00000FF8                  	PUSH	DWORD [4088]
   134 000000DE 68 003C0000                     	PUSH	3932160
   135 000000E3 E8 [00000000]                   	CALL	_sheetctrl_init
   136 000000E8 83 C4 20                        	ADD	ESP,32
   137 000000EB 89 C7                           	MOV	EDI,EAX
   138 000000ED 50                              	PUSH	EAX
   139 000000EE E8 [00000000]                   	CALL	_sheet_alloc
   140 000000F3 0F BF 15 00000FF6               	MOVSX	EDX,WORD [4086]
   141 000000FA 89 85 FFFFFC38                  	MOV	DWORD [-968+EBP],EAX
   142 00000100 0F BF 05 00000FF4               	MOVSX	EAX,WORD [4084]
   143 00000107 0F AF C2                        	IMUL	EAX,EDX
   144 0000010A 50                              	PUSH	EAX
   145 0000010B 68 003C0000                     	PUSH	3932160
   146 00000110 E8 [00000000]                   	CALL	_memman_alloc_4k
   147 00000115 6A FF                           	PUSH	-1
   148 00000117 89 C3                           	MOV	EBX,EAX
   149 00000119 0F BF 05 00000FF6               	MOVSX	EAX,WORD [4086]
   150 00000120 50                              	PUSH	EAX
   151 00000121 0F BF 05 00000FF4               	MOVSX	EAX,WORD [4084]
   152 00000128 50                              	PUSH	EAX
   153 00000129 53                              	PUSH	EBX
   154 0000012A FF B5 FFFFFC38                  	PUSH	DWORD [-968+EBP]
   155 00000130 E8 [00000000]                   	CALL	_sheet_setbuf
   156 00000135 83 C4 20                        	ADD	ESP,32
   157 00000138 0F BF 05 00000FF6               	MOVSX	EAX,WORD [4086]
   158 0000013F 50                              	PUSH	EAX
   159 00000140 0F BF 05 00000FF4               	MOVSX	EAX,WORD [4084]
   160 00000147 50                              	PUSH	EAX
   161 00000148 53                              	PUSH	EBX
   162 00000149 8D 9D FFFFFC84                  	LEA	EBX,DWORD [-892+EBP]
   163 0000014F E8 [00000000]                   	CALL	_init_screen8
   164 00000154 57                              	PUSH	EDI
   165 00000155 E8 [00000000]                   	CALL	_sheet_alloc
   166 0000015A 6A 63                           	PUSH	99
   167 0000015C 6A 10                           	PUSH	16
   168 0000015E 6A 10                           	PUSH	16
   169 00000160 89 85 FFFFFC34                  	MOV	DWORD [-972+EBP],EAX
   170 00000166 53                              	PUSH	EBX
   171 00000167 50                              	PUSH	EAX
   172 00000168 E8 [00000000]                   	CALL	_sheet_setbuf
   173 0000016D 83 C4 24                        	ADD	ESP,36
   174 00000170 6A 63                           	PUSH	99
   175 00000172 53                              	PUSH	EBX
   176 00000173 E8 [00000000]                   	CALL	_init_mouse_cursor8
   177 00000178 E8 [00000000]                   	CALL	_timer_alloc
   178 0000017D 6A 0A                           	PUSH	10
   179 0000017F 56                              	PUSH	ESI
   180 00000180 50                              	PUSH	EAX
   181 00000181 89 85 FFFFFC7C                  	MOV	DWORD [-900+EBP],EAX
   182 00000187 E8 [00000000]                   	CALL	_timer_init
   183 0000018C 68 000003E8                     	PUSH	1000
   184 00000191 FF B5 FFFFFC7C                  	PUSH	DWORD [-900+EBP]
   185 00000197 E8 [00000000]                   	CALL	_timer_settimer
   186 0000019C E8 [00000000]                   	CALL	_timer_alloc
   187 000001A1 6A 03                           	PUSH	3
   188 000001A3 56                              	PUSH	ESI
   189 000001A4 50                              	PUSH	EAX
   190 000001A5 89 85 FFFFFC60                  	MOV	DWORD [-928+EBP],EAX
   191 000001AB E8 [00000000]                   	CALL	_timer_init
   192 000001B0 83 C4 28                        	ADD	ESP,40
   193 000001B3 68 0000012C                     	PUSH	300
   194 000001B8 FF B5 FFFFFC60                  	PUSH	DWORD [-928+EBP]
   195 000001BE E8 [00000000]                   	CALL	_timer_settimer
   196 000001C3 E8 [00000000]                   	CALL	_timer_alloc
   197 000001C8 6A 01                           	PUSH	1
   198 000001CA 56                              	PUSH	ESI
   199 000001CB 31 F6                           	XOR	ESI,ESI
   200 000001CD 50                              	PUSH	EAX
   201 000001CE 89 85 FFFFFC54                  	MOV	DWORD [-940+EBP],EAX
   202 000001D4 E8 [00000000]                   	CALL	_timer_init
   203 000001D9 6A 32                           	PUSH	50
   204 000001DB FF B5 FFFFFC54                  	PUSH	DWORD [-940+EBP]
   205 000001E1 E8 [00000000]                   	CALL	_timer_settimer
   206 000001E6 57                              	PUSH	EDI
   207 000001E7 C7 85 FFFFFC24 00000008         	MOV	DWORD [-988+EBP],8
   208 000001F1 E8 [00000000]                   	CALL	_sheet_alloc
   209 000001F6 83 C4 20                        	ADD	ESP,32
   210 000001F9 6A 01                           	PUSH	1
   211 000001FB 89 85 FFFFFC30                  	MOV	DWORD [-976+EBP],EAX
   212 00000201 68 [00000000]                   	PUSH	LC0
   213 00000206 6A 34                           	PUSH	52
   214 00000208 68 00000090                     	PUSH	144
   215 0000020D 50                              	PUSH	EAX
   216 0000020E 68 003C0000                     	PUSH	3932160
   217 00000213 E8 [00000000]                   	CALL	_make_window8
   218 00000218 57                              	PUSH	EDI
   219 00000219 E8 [00000000]                   	CALL	_sheet_alloc
   220 0000021E 6A 00                           	PUSH	0
   221 00000220 68 [00000006]                   	PUSH	LC1
   222 00000225 6A 32                           	PUSH	50
   223 00000227 89 85 FFFFFC20                  	MOV	DWORD [-992+EBP],EAX
   224 0000022D 68 000000A0                     	PUSH	160
   225 00000232 50                              	PUSH	EAX
   226 00000233 68 003C0000                     	PUSH	3932160
   227 00000238 E8 [00000000]                   	CALL	_make_window8
   228 0000023D 83 C4 34                        	ADD	ESP,52
   229 00000240 6A 07                           	PUSH	7
   230 00000242 6A 10                           	PUSH	16
   231 00000244 68 00000090                     	PUSH	144
   232 00000249 6A 1C                           	PUSH	28
   233 0000024B 6A 08                           	PUSH	8
   234 0000024D FF B5 FFFFFC20                  	PUSH	DWORD [-992+EBP]
   235 00000253 E8 [00000000]                   	CALL	_make_textbox8
   236 00000258 68 003C0000                     	PUSH	3932160
   237 0000025D E8 [00000000]                   	CALL	_task_init
   238 00000262 6A 00                           	PUSH	0
   239 00000264 6A 01                           	PUSH	1
   240 00000266 50                              	PUSH	EAX
   241 00000267 89 85 FFFFFC2C                  	MOV	DWORD [-980+EBP],EAX
   242 0000026D 89 45 BC                        	MOV	DWORD [-68+EBP],EAX
   243 00000270 E8 [00000000]                   	CALL	_task_run
   244 00000275 83 C4 28                        	ADD	ESP,40
   245 00000278                                 L6:
   246 00000278 57                              	PUSH	EDI
   247 00000279 E8 [00000000]                   	CALL	_sheet_alloc
   248 0000027E 68 00001D40                     	PUSH	7488
   249 00000283 68 003C0000                     	PUSH	3932160
   250 00000288 89 84 B5 FFFFFD84               	MOV	DWORD [-636+EBP+ESI*4],EAX
   251 0000028F E8 [00000000]                   	CALL	_memman_alloc_4k
   252 00000294 6A FF                           	PUSH	-1
   253 00000296 6A 34                           	PUSH	52
   254 00000298 68 00000090                     	PUSH	144
   255 0000029D 50                              	PUSH	EAX
   256 0000029E FF B4 B5 FFFFFD84               	PUSH	DWORD [-636+EBP+ESI*4]
   257 000002A5 E8 [00000000]                   	CALL	_sheet_setbuf
   258 000002AA 8D 4D C4                        	LEA	ECX,DWORD [-60+EBP]
   259 000002AD 83 C4 20                        	ADD	ESP,32
   260 000002B0 56                              	PUSH	ESI
   261 000002B1 68 [0000000E]                   	PUSH	LC2
   262 000002B6 51                              	PUSH	ECX
   263 000002B7 E8 [00000000]                   	CALL	_sprintf
   264 000002BC 8D 45 C4                        	LEA	EAX,DWORD [-60+EBP]
   265 000002BF 6A 00                           	PUSH	0
   266 000002C1 50                              	PUSH	EAX
   267 000002C2 6A 34                           	PUSH	52
   268 000002C4 68 00000090                     	PUSH	144
   269 000002C9 FF B4 B5 FFFFFD84               	PUSH	DWORD [-636+EBP+ESI*4]
   270 000002D0 68 003C0000                     	PUSH	3932160
   271 000002D5 E8 [00000000]                   	CALL	_make_window8
   272 000002DA 83 C4 24                        	ADD	ESP,36
   273 000002DD E8 [00000000]                   	CALL	_task_alloc
   274 000002E2 89 C3                           	MOV	EBX,EAX
   275 000002E4 C7 40 30 [0000088E]             	MOV	DWORD [48+EAX],_task_b_main
   276 000002EB 68 00010000                     	PUSH	65536
   277 000002F0 89 84 B5 FFFFFC44               	MOV	DWORD [-956+EBP+ESI*4],EAX
   278 000002F7 68 003C0000                     	PUSH	3932160
   279 000002FC E8 [00000000]                   	CALL	_memman_alloc_4k
   280 00000301 05 0000FFF8                     	ADD	EAX,65528
   281 00000306 89 43 48                        	MOV	DWORD [72+EBX],EAX
   282 00000309 8B 84 B5 FFFFFC44               	MOV	EAX,DWORD [-956+EBP+ESI*4]
   283 00000310 C7 40 58 00000008               	MOV	DWORD [88+EAX],8
   284 00000317 C7 40 5C 00000010               	MOV	DWORD [92+EAX],16
   285 0000031E C7 40 60 00000008               	MOV	DWORD [96+EAX],8
   286 00000325 C7 40 64 00000008               	MOV	DWORD [100+EAX],8
   287 0000032C C7 40 68 00000008               	MOV	DWORD [104+EAX],8
   288 00000333 C7 40 6C 00000008               	MOV	DWORD [108+EAX],8
   289 0000033A 8B 40 48                        	MOV	EAX,DWORD [72+EAX]
   290 0000033D 89 85 FFFFFC1C                  	MOV	DWORD [-996+EBP],EAX
   291 00000343 8B 84 B5 FFFFFD84               	MOV	EAX,DWORD [-636+EBP+ESI*4]
   292 0000034A 8B 95 FFFFFC1C                  	MOV	EDX,DWORD [-996+EBP]
   293 00000350 46                              	INC	ESI
   294 00000351 83 FE 02                        	CMP	ESI,2
   295 00000354 89 42 04                        	MOV	DWORD [4+EDX],EAX
   296 00000357 59                              	POP	ECX
   297 00000358 5B                              	POP	EBX
   298 00000359 0F 8E FFFFFF19                  	JLE	L6
   299 0000035F 57                              	PUSH	EDI
   300 00000360 E8 [00000000]                   	CALL	_sheet_alloc
   301 00000365 6A 00                           	PUSH	0
   302 00000367 68 [00000018]                   	PUSH	LC3
   303 0000036C 89 C6                           	MOV	ESI,EAX
   304 0000036E 68 000000A5                     	PUSH	165
   305 00000373 68 00000100                     	PUSH	256
   306 00000378 50                              	PUSH	EAX
   307 00000379 68 003C0000                     	PUSH	3932160
   308 0000037E E8 [00000000]                   	CALL	_make_window8
   309 00000383 6A 00                           	PUSH	0
   310 00000385 68 00000080                     	PUSH	128
   311 0000038A 68 000000F0                     	PUSH	240
   312 0000038F 6A 1C                           	PUSH	28
   313 00000391 6A 08                           	PUSH	8
   314 00000393 56                              	PUSH	ESI
   315 00000394 E8 [00000000]                   	CALL	_make_textbox8
   316 00000399 83 C4 34                        	ADD	ESP,52
   317 0000039C E8 [00000000]                   	CALL	_task_alloc
   318 000003A1 89 C3                           	MOV	EBX,EAX
   319 000003A3 C7 40 30 [00000944]             	MOV	DWORD [48+EAX],_console_task
   320 000003AA 68 00010000                     	PUSH	65536
   321 000003AF 68 003C0000                     	PUSH	3932160
   322 000003B4 E8 [00000000]                   	CALL	_memman_alloc_4k
   323 000003B9 05 0000FFF8                     	ADD	EAX,65528
   324 000003BE 89 43 48                        	MOV	DWORD [72+EBX],EAX
   325 000003C1 C7 43 58 00000008               	MOV	DWORD [88+EBX],8
   326 000003C8 C7 43 5C 00000010               	MOV	DWORD [92+EBX],16
   327 000003CF C7 43 60 00000008               	MOV	DWORD [96+EBX],8
   328 000003D6 C7 43 64 00000008               	MOV	DWORD [100+EBX],8
   329 000003DD C7 43 68 00000008               	MOV	DWORD [104+EBX],8
   330 000003E4 C7 43 6C 00000008               	MOV	DWORD [108+EBX],8
   331 000003EB 89 70 04                        	MOV	DWORD [4+EAX],ESI
   332 000003EE 6A 02                           	PUSH	2
   333 000003F0 6A 02                           	PUSH	2
   334 000003F2 53                              	PUSH	EBX
   335 000003F3 E8 [00000000]                   	CALL	_task_run
   336 000003F8 6A 00                           	PUSH	0
   337 000003FA 6A 00                           	PUSH	0
   338 000003FC FF B5 FFFFFC38                  	PUSH	DWORD [-968+EBP]
   339 00000402 E8 [00000000]                   	CALL	_sheet_slide
   340 00000407 83 C4 20                        	ADD	ESP,32
   341 0000040A 68 00000091                     	PUSH	145
   342 0000040F 68 000000F5                     	PUSH	245
   343 00000414 FF B5 FFFFFC20                  	PUSH	DWORD [-992+EBP]
   344 0000041A E8 [00000000]                   	CALL	_sheet_slide
   345 0000041F 6A 38                           	PUSH	56
   346 00000421 6A 6C                           	PUSH	108
   347 00000423 FF B5 FFFFFC30                  	PUSH	DWORD [-976+EBP]
   348 00000429 E8 [00000000]                   	CALL	_sheet_slide
   349 0000042E 68 000000C8                     	PUSH	200
   350 00000433 6A 46                           	PUSH	70
   351 00000435 56                              	PUSH	ESI
   352 00000436 E8 [00000000]                   	CALL	_sheet_slide
   353 0000043B 83 C4 24                        	ADD	ESP,36
   354 0000043E 6A 38                           	PUSH	56
   355 00000440 68 0000010C                     	PUSH	268
   356 00000445 FF B5 FFFFFD84                  	PUSH	DWORD [-636+EBP]
   357 0000044B E8 [00000000]                   	CALL	_sheet_slide
   358 00000450 6A 74                           	PUSH	116
   359 00000452 6A 6C                           	PUSH	108
   360 00000454 FF B5 FFFFFD88                  	PUSH	DWORD [-632+EBP]
   361 0000045A E8 [00000000]                   	CALL	_sheet_slide
   362 0000045F 6A 74                           	PUSH	116
   363 00000461 68 0000010C                     	PUSH	268
   364 00000466 FF B5 FFFFFD8C                  	PUSH	DWORD [-628+EBP]
   365 0000046C E8 [00000000]                   	CALL	_sheet_slide
   366 00000471 83 C4 24                        	ADD	ESP,36
   367 00000474 B9 00000002                     	MOV	ECX,2
   368 00000479 A1 00000FF4                     	MOV	EAX,DWORD [4084]
   369 0000047E 66 99                           	CWD
   370 00000480 66 F7 F9                        	IDIV	CX
   371 00000483 98                              	CWDE
   372 00000484 89 85 FFFFFC40                  	MOV	DWORD [-960+EBP],EAX
   373 0000048A 66 A1 00000FF6                  	MOV	AX,WORD [4086]
   374 00000490 66 99                           	CWD
   375 00000492 66 F7 F9                        	IDIV	CX
   376 00000495 0F BF F8                        	MOVSX	EDI,AX
   377 00000498 57                              	PUSH	EDI
   378 00000499 FF B5 FFFFFC40                  	PUSH	DWORD [-960+EBP]
   379 0000049F FF B5 FFFFFC34                  	PUSH	DWORD [-972+EBP]
   380 000004A5 E8 [00000000]                   	CALL	_sheet_slide
   381 000004AA 6A 00                           	PUSH	0
   382 000004AC FF B5 FFFFFC38                  	PUSH	DWORD [-968+EBP]
   383 000004B2 E8 [00000000]                   	CALL	_sheet_updown
   384 000004B7 6A 01                           	PUSH	1
   385 000004B9 FF B5 FFFFFD84                  	PUSH	DWORD [-636+EBP]
   386 000004BF E8 [00000000]                   	CALL	_sheet_updown
   387 000004C4 6A 02                           	PUSH	2
   388 000004C6 FF B5 FFFFFD88                  	PUSH	DWORD [-632+EBP]
   389 000004CC E8 [00000000]                   	CALL	_sheet_updown
   390 000004D1 83 C4 24                        	ADD	ESP,36
   391 000004D4 6A 03                           	PUSH	3
   392 000004D6 FF B5 FFFFFD8C                  	PUSH	DWORD [-628+EBP]
   393 000004DC E8 [00000000]                   	CALL	_sheet_updown
   394 000004E1 6A 04                           	PUSH	4
   395 000004E3 FF B5 FFFFFC30                  	PUSH	DWORD [-976+EBP]
   396 000004E9 E8 [00000000]                   	CALL	_sheet_updown
   397 000004EE 6A 05                           	PUSH	5
   398 000004F0 56                              	PUSH	ESI
   399 000004F1 E8 [00000000]                   	CALL	_sheet_updown
   400 000004F6 6A 06                           	PUSH	6
   401 000004F8 FF B5 FFFFFC20                  	PUSH	DWORD [-992+EBP]
   402 000004FE E8 [00000000]                   	CALL	_sheet_updown
   403 00000503 83 C4 20                        	ADD	ESP,32
   404 00000506 6A 07                           	PUSH	7
   405 00000508 FF B5 FFFFFC34                  	PUSH	DWORD [-972+EBP]
   406 0000050E E8 [00000000]                   	CALL	_sheet_updown
   407 00000513 68 003C0000                     	PUSH	3932160
   408 00000518 E8 [00000000]                   	CALL	_memman_total
   409 0000051D 8D 4D C4                        	LEA	ECX,DWORD [-60+EBP]
   410 00000520 C1 E8 0A                        	SHR	EAX,10
   411 00000523 C1 AD FFFFFC3C 14               	SHR	DWORD [-964+EBP],20
   412 0000052A 89 04 24                        	MOV	DWORD [ESP],EAX
   413 0000052D FF B5 FFFFFC3C                  	PUSH	DWORD [-964+EBP]
   414 00000533 68 [00000020]                   	PUSH	LC4
   415 00000538 51                              	PUSH	ECX
   416 00000539 E8 [00000000]                   	CALL	_sprintf
   417 0000053E 8D 45 C4                        	LEA	EAX,DWORD [-60+EBP]
   418 00000541 50                              	PUSH	EAX
   419 00000542 6A 0C                           	PUSH	12
   420 00000544 6A 20                           	PUSH	32
   421 00000546 6A 00                           	PUSH	0
   422 00000548 FF B5 FFFFFC38                  	PUSH	DWORD [-968+EBP]
   423 0000054E E8 [00000000]                   	CALL	_putStrOnSheet
   424 00000553 83 C4 2C                        	ADD	ESP,44
   425 00000556 C7 85 FFFFFC14 00000000         	MOV	DWORD [-1004+EBP],0
   426 00000560                                 L7:
   427 00000560 FF 85 FFFFFC14                  	INC	DWORD [-1004+EBP]
   428 00000566 8D 55 C4                        	LEA	EDX,DWORD [-60+EBP]
   429 00000569 FF B5 FFFFFC14                  	PUSH	DWORD [-1004+EBP]
   430 0000056F 68 [0000003C]                   	PUSH	LC5
   431 00000574 8D 5D A4                        	LEA	EBX,DWORD [-92+EBP]
   432 00000577 52                              	PUSH	EDX
   433 00000578 E8 [00000000]                   	CALL	_sprintf
   434 0000057D 8D 4D C4                        	LEA	ECX,DWORD [-60+EBP]
   435 00000580 51                              	PUSH	ECX
   436 00000581 6A 00                           	PUSH	0
   437 00000583 6A 1C                           	PUSH	28
   438 00000585 6A 28                           	PUSH	40
   439 00000587 FF B5 FFFFFC30                  	PUSH	DWORD [-976+EBP]
   440 0000058D E8 [00000000]                   	CALL	_putStrOnSheet
   441 00000592 83 C4 20                        	ADD	ESP,32
   442 00000595 E8 [00000000]                   	CALL	_io_cli
   443 0000059A 53                              	PUSH	EBX
   444 0000059B E8 [00000000]                   	CALL	_fifo32_status
   445 000005A0 5A                              	POP	EDX
   446 000005A1 85 C0                           	TEST	EAX,EAX
   447 000005A3 0F 84 000002CF                  	JE	L36
   448 000005A9 53                              	PUSH	EBX
   449 000005AA E8 [00000000]                   	CALL	_fifo32_get
   450 000005AF 89 C6                           	MOV	ESI,EAX
   451 000005B1 E8 [00000000]                   	CALL	_io_sti
   452 000005B6 58                              	POP	EAX
   453 000005B7 83 FE 0A                        	CMP	ESI,10
   454 000005BA 75 1B                           	JNE	L37
   455 000005BC 68 [00000042]                   	PUSH	LC7
   456 000005C1                                 L34:
   457 000005C1 6A 07                           	PUSH	7
   458 000005C3 6A 40                           	PUSH	64
   459 000005C5 6A 00                           	PUSH	0
   460 000005C7 FF B5 FFFFFC38                  	PUSH	DWORD [-968+EBP]
   461 000005CD E8 [00000000]                   	CALL	_putStrOnSheet
   462 000005D2 83 C4 14                        	ADD	ESP,20
   463 000005D5 EB 89                           	JMP	L7
   464 000005D7                                 L37:
   465 000005D7 83 FE 0A                        	CMP	ESI,10
   466 000005DA 0F 8E 0000022B                  	JLE	L38
   467 000005E0 81 FE 00000100                  	CMP	ESI,256
   468 000005E6 0F 8C FFFFFF74                  	JL	L7
   469 000005EC 81 FE 000001FF                  	CMP	ESI,511
   470 000005F2 0F 8F 000000CF                  	JG	L39
   471 000005F8 8D 86 FFFFFF00                  	LEA	EAX,DWORD [-256+ESI]
   472 000005FE 50                              	PUSH	EAX
   473 000005FF 8D 45 C4                        	LEA	EAX,DWORD [-60+EBP]
   474 00000602 68 [00000049]                   	PUSH	LC8
   475 00000607 50                              	PUSH	EAX
   476 00000608 E8 [00000000]                   	CALL	_sprintf
   477 0000060D 8D 55 C4                        	LEA	EDX,DWORD [-60+EBP]
   478 00000610 FF B5 FFFFFC24                  	PUSH	DWORD [-988+EBP]
   479 00000616 68 [0000004E]                   	PUSH	LC9
   480 0000061B 52                              	PUSH	EDX
   481 0000061C E8 [00000000]                   	CALL	_sprintf
   482 00000621 8D 4D C4                        	LEA	ECX,DWORD [-60+EBP]
   483 00000624 51                              	PUSH	ECX
   484 00000625 6A 07                           	PUSH	7
   485 00000627 6A 10                           	PUSH	16
   486 00000629 6A 00                           	PUSH	0
   487 0000062B FF B5 FFFFFC38                  	PUSH	DWORD [-968+EBP]
   488 00000631 E8 [00000000]                   	CALL	_putStrOnSheet
   489 00000636 83 C4 2C                        	ADD	ESP,44
   490 00000639 81 FE 00000153                  	CMP	ESI,339
   491 0000063F 7F 42                           	JG	L20
   492 00000641 8A 86 [FFFFFF00]                	MOV	AL,BYTE [_keytable-256+ESI]
   493 00000647 84 C0                           	TEST	AL,AL
   494 00000649 74 38                           	JE	L20
   495 0000064B 81 BD FFFFFC24 0000008F         	CMP	DWORD [-988+EBP],143
   496 00000655 7F 2C                           	JG	L20
   497 00000657 88 45 C4                        	MOV	BYTE [-60+EBP],AL
   498 0000065A 8D 45 C4                        	LEA	EAX,DWORD [-60+EBP]
   499 0000065D 50                              	PUSH	EAX
   500 0000065E 6A 07                           	PUSH	7
   501 00000660 6A 00                           	PUSH	0
   502 00000662 6A 1C                           	PUSH	28
   503 00000664 FF B5 FFFFFC24                  	PUSH	DWORD [-988+EBP]
   504 0000066A FF B5 FFFFFC20                  	PUSH	DWORD [-992+EBP]
   505 00000670 C6 45 C5 00                     	MOV	BYTE [-59+EBP],0
   506 00000674 E8 [00000000]                   	CALL	_putStrOnSheet_BG
   507 00000679 83 C4 18                        	ADD	ESP,24
   508 0000067C 83 85 FFFFFC24 08               	ADD	DWORD [-988+EBP],8
   509 00000683                                 L20:
   510 00000683 81 FE 0000010E                  	CMP	ESI,270
   511 00000689 0F 85 FFFFFED1                  	JNE	L7
   512 0000068F 83 BD FFFFFC24 08               	CMP	DWORD [-988+EBP],8
   513 00000696 0F 8E FFFFFEC4                  	JLE	L7
   514 0000069C 68 [00000051]                   	PUSH	LC10
   515 000006A1 6A 07                           	PUSH	7
   516 000006A3 6A 07                           	PUSH	7
   517 000006A5 6A 1C                           	PUSH	28
   518 000006A7 FF B5 FFFFFC24                  	PUSH	DWORD [-988+EBP]
   519 000006AD FF B5 FFFFFC20                  	PUSH	DWORD [-992+EBP]
   520 000006B3 E8 [00000000]                   	CALL	_putStrOnSheet_BG
   521 000006B8 83 AD FFFFFC24 08               	SUB	DWORD [-988+EBP],8
   522 000006BF                                 L35:
   523 000006BF 83 C4 18                        	ADD	ESP,24
   524 000006C2 E9 FFFFFE99                     	JMP	L7
   525 000006C7                                 L39:
   526 000006C7 81 FE 000002FF                  	CMP	ESI,767
   527 000006CD 0F 8F FFFFFE8D                  	JG	L7
   528 000006D3 89 F2                           	MOV	EDX,ESI
   529 000006D5 0F B6 C2                        	MOVZX	EAX,DL
   530 000006D8 50                              	PUSH	EAX
   531 000006D9 8D 85 FFFFFD94                  	LEA	EAX,DWORD [-620+EBP]
   532 000006DF 50                              	PUSH	EAX
   533 000006E0 E8 [00000000]                   	CALL	_mouse_decode
   534 000006E5 5A                              	POP	EDX
   535 000006E6 59                              	POP	ECX
   536 000006E7 85 C0                           	TEST	EAX,EAX
   537 000006E9 0F 84 FFFFFE71                  	JE	L7
   538 000006EF FF B5 FFFFFD9C                  	PUSH	DWORD [-612+EBP]
   539 000006F5 FF B5 FFFFFD98                  	PUSH	DWORD [-616+EBP]
   540 000006FB 68 [00000053]                   	PUSH	LC11
   541 00000700 8D 5D C4                        	LEA	EBX,DWORD [-60+EBP]
   542 00000703 53                              	PUSH	EBX
   543 00000704 E8 [00000000]                   	CALL	_sprintf
   544 00000709 83 C4 10                        	ADD	ESP,16
   545 0000070C 8B 85 FFFFFDA0                  	MOV	EAX,DWORD [-608+EBP]
   546 00000712 A9 00000001                     	TEST	EAX,1
   547 00000717 74 04                           	JE	L25
   548 00000719 C6 45 C5 4C                     	MOV	BYTE [-59+EBP],76
   549 0000071D                                 L25:
   550 0000071D A9 00000002                     	TEST	EAX,2
   551 00000722 74 04                           	JE	L26
   552 00000724 C6 45 C7 52                     	MOV	BYTE [-57+EBP],82
   553 00000728                                 L26:
   554 00000728 83 E0 04                        	AND	EAX,4
   555 0000072B 74 04                           	JE	L27
   556 0000072D C6 45 C6 43                     	MOV	BYTE [-58+EBP],67
   557 00000731                                 L27:
   558 00000731 53                              	PUSH	EBX
   559 00000732 6A 07                           	PUSH	7
   560 00000734 6A 10                           	PUSH	16
   561 00000736 6A 20                           	PUSH	32
   562 00000738 FF B5 FFFFFC38                  	PUSH	DWORD [-968+EBP]
   563 0000073E E8 [00000000]                   	CALL	_putStrOnSheet
   564 00000743 6A 00                           	PUSH	0
   565 00000745 8B 8D FFFFFD98                  	MOV	ECX,DWORD [-616+EBP]
   566 0000074B 03 BD FFFFFD9C                  	ADD	EDI,DWORD [-612+EBP]
   567 00000751 01 8D FFFFFC40                  	ADD	DWORD [-960+EBP],ECX
   568 00000757 FF B5 FFFFFC40                  	PUSH	DWORD [-960+EBP]
   569 0000075D E8 [00000000]                   	CALL	_max
   570 00000762 6A 00                           	PUSH	0
   571 00000764 57                              	PUSH	EDI
   572 00000765 89 85 FFFFFC40                  	MOV	DWORD [-960+EBP],EAX
   573 0000076B E8 [00000000]                   	CALL	_max
   574 00000770 83 C4 24                        	ADD	ESP,36
   575 00000773 89 C7                           	MOV	EDI,EAX
   576 00000775 0F BF 05 00000FF4               	MOVSX	EAX,WORD [4084]
   577 0000077C 50                              	PUSH	EAX
   578 0000077D FF B5 FFFFFC40                  	PUSH	DWORD [-960+EBP]
   579 00000783 E8 [00000000]                   	CALL	_min
   580 00000788 89 85 FFFFFC40                  	MOV	DWORD [-960+EBP],EAX
   581 0000078E 0F BF 05 00000FF6               	MOVSX	EAX,WORD [4086]
   582 00000795 50                              	PUSH	EAX
   583 00000796 57                              	PUSH	EDI
   584 00000797 E8 [00000000]                   	CALL	_min
   585 0000079C 89 C7                           	MOV	EDI,EAX
   586 0000079E 50                              	PUSH	EAX
   587 0000079F FF B5 FFFFFC40                  	PUSH	DWORD [-960+EBP]
   588 000007A5 68 [00000061]                   	PUSH	LC12
   589 000007AA 53                              	PUSH	EBX
   590 000007AB E8 [00000000]                   	CALL	_sprintf
   591 000007B0 83 C4 20                        	ADD	ESP,32
   592 000007B3 53                              	PUSH	EBX
   593 000007B4 6A 00                           	PUSH	0
   594 000007B6 6A 00                           	PUSH	0
   595 000007B8 6A 00                           	PUSH	0
   596 000007BA FF B5 FFFFFC38                  	PUSH	DWORD [-968+EBP]
   597 000007C0 E8 [00000000]                   	CALL	_putStrOnSheet
   598 000007C5 57                              	PUSH	EDI
   599 000007C6 FF B5 FFFFFC40                  	PUSH	DWORD [-960+EBP]
   600 000007CC FF B5 FFFFFC34                  	PUSH	DWORD [-972+EBP]
   601 000007D2 E8 [00000000]                   	CALL	_sheet_slide
   602 000007D7 83 C4 20                        	ADD	ESP,32
   603 000007DA F7 85 FFFFFDA0 00000001         	TEST	DWORD [-608+EBP],1
   604 000007E4 0F 84 FFFFFD76                  	JE	L7
   605 000007EA 8D 47 F8                        	LEA	EAX,DWORD [-8+EDI]
   606 000007ED 50                              	PUSH	EAX
   607 000007EE 8B 85 FFFFFC40                  	MOV	EAX,DWORD [-960+EBP]
   608 000007F4 83 E8 50                        	SUB	EAX,80
   609 000007F7 50                              	PUSH	EAX
   610 000007F8 FF B5 FFFFFC20                  	PUSH	DWORD [-992+EBP]
   611 000007FE E8 [00000000]                   	CALL	_sheet_slide
   612 00000803 83 C4 0C                        	ADD	ESP,12
   613 00000806 E9 FFFFFD55                     	JMP	L7
   614 0000080B                                 L38:
   615 0000080B 85 F6                           	TEST	ESI,ESI
   616 0000080D 0F 88 FFFFFD4D                  	JS	L7
   617 00000813 83 FE 01                        	CMP	ESI,1
   618 00000816 7F 4D                           	JG	L40
   619 00000818 89 F0                           	MOV	EAX,ESI
   620 0000081A 83 F0 01                        	XOR	EAX,1
   621 0000081D 0F B6 C0                        	MOVZX	EAX,AL
   622 00000820 50                              	PUSH	EAX
   623 00000821 53                              	PUSH	EBX
   624 00000822 FF B5 FFFFFC54                  	PUSH	DWORD [-940+EBP]
   625 00000828 E8 [00000000]                   	CALL	_timer_init
   626 0000082D 6A 32                           	PUSH	50
   627 0000082F FF B5 FFFFFC54                  	PUSH	DWORD [-940+EBP]
   628 00000835 E8 [00000000]                   	CALL	_timer_settimer
   629 0000083A B8 00000007                     	MOV	EAX,7
   630 0000083F 83 C4 14                        	ADD	ESP,20
   631 00000842 85 F6                           	TEST	ESI,ESI
   632 00000844 75 02                           	JNE	L16
   633 00000846 31 C0                           	XOR	EAX,EAX
   634 00000848                                 L16:
   635 00000848 50                              	PUSH	EAX
   636 00000849 6A 10                           	PUSH	16
   637 0000084B 6A 08                           	PUSH	8
   638 0000084D 6A 1C                           	PUSH	28
   639 0000084F FF B5 FFFFFC24                  	PUSH	DWORD [-988+EBP]
   640 00000855 FF B5 FFFFFC20                  	PUSH	DWORD [-992+EBP]
   641 0000085B E8 [00000000]                   	CALL	_putBoxOnSheet
   642 00000860 E9 FFFFFE5A                     	JMP	L35
   643 00000865                                 L40:
   644 00000865 83 FE 03                        	CMP	ESI,3
   645 00000868 0F 85 FFFFFCF2                  	JNE	L7
   646 0000086E 68 [0000006C]                   	PUSH	LC6
   647 00000873 E9 FFFFFD49                     	JMP	L34
   648 00000878                                 L36:
   649 00000878 FF B5 FFFFFC2C                  	PUSH	DWORD [-980+EBP]
   650 0000087E E8 [00000000]                   	CALL	_task_sleep
   651 00000883 E8 [00000000]                   	CALL	_io_sti
   652 00000888 58                              	POP	EAX
   653 00000889 E9 FFFFFCD2                     	JMP	L7
   654                                          [SECTION .data]
   655 00000072                                 LC13:
   656 00000072 25 31 31 64 00                  	DB	"%11d",0x00
   657                                          [SECTION .text]
   658 0000088E                                 	GLOBAL	_task_b_main
   659 0000088E                                 _task_b_main:
   660 0000088E 55                              	PUSH	EBP
   661 0000088F 89 E5                           	MOV	EBP,ESP
   662 00000891 57                              	PUSH	EDI
   663 00000892 56                              	PUSH	ESI
   664 00000893 31 FF                           	XOR	EDI,EDI
   665 00000895 53                              	PUSH	EBX
   666 00000896 8D 85 FFFFFDD4                  	LEA	EAX,DWORD [-556+EBP]
   667 0000089C 81 EC 00000254                  	SUB	ESP,596
   668 000008A2 8D 5D D4                        	LEA	EBX,DWORD [-44+EBP]
   669 000008A5 C7 85 FFFFFDA0 00000000         	MOV	DWORD [-608+EBP],0
   670 000008AF 6A 00                           	PUSH	0
   671 000008B1 50                              	PUSH	EAX
   672 000008B2 68 00000080                     	PUSH	128
   673 000008B7 53                              	PUSH	EBX
   674 000008B8 E8 [00000000]                   	CALL	_init_fifo32
   675 000008BD E8 [00000000]                   	CALL	_timer_alloc
   676 000008C2 6A 64                           	PUSH	100
   677 000008C4 53                              	PUSH	EBX
   678 000008C5 89 C6                           	MOV	ESI,EAX
   679 000008C7 50                              	PUSH	EAX
   680 000008C8 E8 [00000000]                   	CALL	_timer_init
   681 000008CD 6A 64                           	PUSH	100
   682 000008CF 56                              	PUSH	ESI
   683 000008D0 E8 [00000000]                   	CALL	_timer_settimer
   684 000008D5 83 C4 24                        	ADD	ESP,36
   685 000008D8                                 L43:
   686 000008D8 8D 5D D4                        	LEA	EBX,DWORD [-44+EBP]
   687 000008DB E8 [00000000]                   	CALL	_io_cli
   688 000008E0 53                              	PUSH	EBX
   689 000008E1 47                              	INC	EDI
   690 000008E2 E8 [00000000]                   	CALL	_fifo32_status
   691 000008E7 5A                              	POP	EDX
   692 000008E8 85 C0                           	TEST	EAX,EAX
   693 000008EA 74 51                           	JE	L49
   694 000008EC 53                              	PUSH	EBX
   695 000008ED E8 [00000000]                   	CALL	_fifo32_get
   696 000008F2 89 C3                           	MOV	EBX,EAX
   697 000008F4 E8 [00000000]                   	CALL	_io_sti
   698 000008F9 59                              	POP	ECX
   699 000008FA 83 FB 64                        	CMP	EBX,100
   700 000008FD 75 D9                           	JNE	L43
   701 000008FF 89 F8                           	MOV	EAX,EDI
   702 00000901 8D 9D FFFFFDA4                  	LEA	EBX,DWORD [-604+EBP]
   703 00000907 2B 85 FFFFFDA0                  	SUB	EAX,DWORD [-608+EBP]
   704 0000090D 50                              	PUSH	EAX
   705 0000090E 68 [00000072]                   	PUSH	LC13
   706 00000913 53                              	PUSH	EBX
   707 00000914 E8 [00000000]                   	CALL	_sprintf
   708 00000919 53                              	PUSH	EBX
   709 0000091A 6A 00                           	PUSH	0
   710 0000091C 6A 1C                           	PUSH	28
   711 0000091E 6A 18                           	PUSH	24
   712 00000920 FF 75 08                        	PUSH	DWORD [8+EBP]
   713 00000923 E8 [00000000]                   	CALL	_putStrOnSheet
   714 00000928 83 C4 20                        	ADD	ESP,32
   715 0000092B 89 BD FFFFFDA0                  	MOV	DWORD [-608+EBP],EDI
   716 00000931 6A 64                           	PUSH	100
   717 00000933 56                              	PUSH	ESI
   718 00000934 E8 [00000000]                   	CALL	_timer_settimer
   719 00000939 58                              	POP	EAX
   720 0000093A 5A                              	POP	EDX
   721 0000093B EB 9B                           	JMP	L43
   722 0000093D                                 L49:
   723 0000093D E8 [00000000]                   	CALL	_io_sti
   724 00000942 EB 94                           	JMP	L43
   725 00000944                                 	GLOBAL	_console_task
   726 00000944                                 _console_task:
   727 00000944 55                              	PUSH	EBP
   728 00000945 89 E5                           	MOV	EBP,ESP
   729 00000947 57                              	PUSH	EDI
   730 00000948 56                              	PUSH	ESI
   731 00000949 53                              	PUSH	EBX
   732 0000094A 8D 5D D4                        	LEA	EBX,DWORD [-44+EBP]
   733 0000094D 81 EC 00000254                  	SUB	ESP,596
   734 00000953 E8 [00000000]                   	CALL	_task_current
   735 00000958 50                              	PUSH	EAX
   736 00000959 89 85 FFFFFDA0                  	MOV	DWORD [-608+EBP],EAX
   737 0000095F 8D 85 FFFFFDD4                  	LEA	EAX,DWORD [-556+EBP]
   738 00000965 50                              	PUSH	EAX
   739 00000966 68 00000080                     	PUSH	128
   740 0000096B 53                              	PUSH	EBX
   741 0000096C E8 [00000000]                   	CALL	_init_fifo32
   742 00000971 E8 [00000000]                   	CALL	_timer_alloc
   743 00000976 6A 01                           	PUSH	1
   744 00000978 53                              	PUSH	EBX
   745 00000979 89 C7                           	MOV	EDI,EAX
   746 0000097B 50                              	PUSH	EAX
   747 0000097C E8 [00000000]                   	CALL	_timer_init
   748 00000981 6A 32                           	PUSH	50
   749 00000983 57                              	PUSH	EDI
   750 00000984 E8 [00000000]                   	CALL	_timer_settimer
   751 00000989 83 C4 24                        	ADD	ESP,36
   752 0000098C                                 L59:
   753 0000098C 8D 75 D4                        	LEA	ESI,DWORD [-44+EBP]
   754 0000098F E8 [00000000]                   	CALL	_io_cli
   755 00000994 56                              	PUSH	ESI
   756 00000995 E8 [00000000]                   	CALL	_fifo32_status
   757 0000099A 5A                              	POP	EDX
   758 0000099B 85 C0                           	TEST	EAX,EAX
   759 0000099D 74 53                           	JE	L61
   760 0000099F 56                              	PUSH	ESI
   761 000009A0 E8 [00000000]                   	CALL	_fifo32_get
   762 000009A5 89 C3                           	MOV	EBX,EAX
   763 000009A7 E8 [00000000]                   	CALL	_io_sti
   764 000009AC 59                              	POP	ECX
   765 000009AD 83 FB 01                        	CMP	EBX,1
   766 000009B0 7F DA                           	JG	L59
   767 000009B2 85 DB                           	TEST	EBX,EBX
   768 000009B4 74 2F                           	JE	L57
   769 000009B6 6A 00                           	PUSH	0
   770 000009B8 BB 00000007                     	MOV	EBX,7
   771 000009BD 56                              	PUSH	ESI
   772 000009BE 57                              	PUSH	EDI
   773 000009BF E8 [00000000]                   	CALL	_timer_init
   774 000009C4                                 L60:
   775 000009C4 83 C4 0C                        	ADD	ESP,12
   776 000009C7 6A 32                           	PUSH	50
   777 000009C9 57                              	PUSH	EDI
   778 000009CA E8 [00000000]                   	CALL	_timer_settimer
   779 000009CF 53                              	PUSH	EBX
   780 000009D0 6A 10                           	PUSH	16
   781 000009D2 6A 08                           	PUSH	8
   782 000009D4 6A 1C                           	PUSH	28
   783 000009D6 6A 08                           	PUSH	8
   784 000009D8 FF 75 08                        	PUSH	DWORD [8+EBP]
   785 000009DB E8 [00000000]                   	CALL	_putBoxOnSheet
   786 000009E0 83 C4 20                        	ADD	ESP,32
   787 000009E3 EB A7                           	JMP	L59
   788 000009E5                                 L57:
   789 000009E5 6A 01                           	PUSH	1
   790 000009E7 31 DB                           	XOR	EBX,EBX
   791 000009E9 56                              	PUSH	ESI
   792 000009EA 57                              	PUSH	EDI
   793 000009EB E8 [00000000]                   	CALL	_timer_init
   794 000009F0 EB D2                           	JMP	L60
   795 000009F2                                 L61:
   796 000009F2 FF B5 FFFFFDA0                  	PUSH	DWORD [-608+EBP]
   797 000009F8 E8 [00000000]                   	CALL	_task_sleep
   798 000009FD E8 [00000000]                   	CALL	_io_sti
   799 00000A02 5B                              	POP	EBX
   800 00000A03 EB 87                           	JMP	L59
